libcss_parser_pp.so.0 libcss-parser-pp0v5 #MINVER#
 _ZN7htmlcxx3CSS6IE_CSSE@Base 0.83
 _ZN7htmlcxx3CSS6Parser5matchERKSt6vectorINS1_8SelectorESaIS3_EES7_@Base 0.83
 _ZN7htmlcxx3CSS6Parser5mergeERKS1_@Base 0.83
 _ZN7htmlcxx3CSS6Parser5parseEPKci@Base 0.83
 _ZN7htmlcxx3CSS6Parser5parseERKNSt7__cxx1112basic_stringIcSt11char_traitsIcESaIcEEE@Base 0.85
 _ZN7htmlcxx3CSS6Parser8Selector10setElementERKNSt7__cxx1112basic_stringIcSt11char_traitsIcESaIcEEE@Base 0.85
 _ZN7htmlcxx3CSS6Parser8Selector14setPseudoClassENS1_11PseudoClassE@Base 0.83
 _ZN7htmlcxx3CSS6Parser8Selector16setPseudoElementENS1_13PseudoElementE@Base 0.83
 _ZN7htmlcxx3CSS6Parser8Selector5setIdERKNSt7__cxx1112basic_stringIcSt11char_traitsIcESaIcEEE@Base 0.85
 _ZN7htmlcxx3CSS6Parser8Selector8setClassERKNSt7__cxx1112basic_stringIcSt11char_traitsIcESaIcEEE@Base 0.85
 _ZN7htmlcxx3CSS6Parser8SelectorC1ERKNSt7__cxx1112basic_stringIcSt11char_traitsIcESaIcEEESA_SA_RKNS1_11PseudoClassERKNS1_13PseudoElementE@Base 0.85
 _ZN7htmlcxx3CSS6Parser8SelectorC1Ev@Base 0.83
 _ZN7htmlcxx3CSS6Parser8SelectorC2ERKNSt7__cxx1112basic_stringIcSt11char_traitsIcESaIcEEESA_SA_RKNS1_11PseudoClassERKNS1_13PseudoElementE@Base 0.85
 _ZN7htmlcxx3CSS6Parser8SelectorC2Ev@Base 0.83
 _ZN7htmlcxx3CSS6Parser8SelectorD1Ev@Base 0.83
 (optional)_ZN7htmlcxx3CSS6Parser8SelectorD2Ev@Base 0.83
 _ZN7htmlcxx3CSS7psc2strB5cxx11ERKNS0_6Parser11PseudoClassE@Base 0.85
 _ZN7htmlcxx3CSS7pse2strB5cxx11ERKNS0_6Parser13PseudoElementE@Base 0.85
 _ZN7htmlcxx3CSSlsERSoRKNS0_6Parser8SelectorE@Base 0.83
 _ZN7htmlcxx3CSSlsERSoRKNS0_6ParserE@Base 0.83
 _ZN7htmlcxx3CSSlsERSoRKSt3mapINSt7__cxx1112basic_stringIcSt11char_traitsIcESaIcEEENS0_6Parser9AttributeESt4lessIS8_ESaISt4pairIKS8_SA_EEE@Base 0.85
 _ZNK7htmlcxx3CSS6Parser13getAttributesB5cxx11ERKSt6vectorINS1_8SelectorESaIS3_EE@Base 0.85
 _ZNK7htmlcxx3CSS6Parser8Selector5matchERKS2_@Base 0.83
 _ZNK7htmlcxx3CSS6Parser8SelectoreqERKS2_@Base 0.83
 _ZNK7htmlcxx3CSS6Parser8SelectorltERKS2_@Base 0.83
 _ZNKSt5ctypeIcE8do_widenEc@Base 0.85
 _ZNSt4pairIKNSt7__cxx1112basic_stringIcSt11char_traitsIcESaIcEEEN7htmlcxx3CSS6Parser9AttributeEED1Ev@Base 0.85
 _ZNSt4pairIKNSt7__cxx1112basic_stringIcSt11char_traitsIcESaIcEEEN7htmlcxx3CSS6Parser9AttributeEED2Ev@Base 0.85
 (optional)_ZNSt6vectorIN7htmlcxx3CSS6Parser8SelectorESaIS3_EE13_M_insert_auxEN9__gnu_cxx17__normal_iteratorIPS3_S5_EERKS3_@Base 0.83
 (optional)_ZNSt6vectorIN7htmlcxx3CSS6Parser8SelectorESaIS3_EED1Ev@Base 0.83
 (optional)_ZNSt6vectorIN7htmlcxx3CSS6Parser8SelectorESaIS3_EED2Ev@Base 0.83
 _ZNSt8_Rb_treeINSt7__cxx1112basic_stringIcSt11char_traitsIcESaIcEEESt4pairIKS5_N7htmlcxx3CSS6Parser9AttributeEESt10_Select1stISC_ESt4lessIS5_ESaISC_EE24_M_get_insert_unique_posERS7_@Base 0.85
 (arch-bits=64|arch=!s390x)_ZNSt8_Rb_treeINSt7__cxx1112basic_stringIcSt11char_traitsIcESaIcEEESt4pairIKS5_N7htmlcxx3CSS6Parser9AttributeEESt10_Select1stISC_ESt4lessIS5_ESaISC_EE29_M_get_insert_hint_unique_posESt23_Rb_tree_const_iteratorISC_ERS7_@Base 0.85
 _ZNSt8_Rb_treeINSt7__cxx1112basic_stringIcSt11char_traitsIcESaIcEEESt4pairIKS5_N7htmlcxx3CSS6Parser9AttributeEESt10_Select1stISC_ESt4lessIS5_ESaISC_EE7_M_copyINSI_11_Alloc_nodeEEEPSt13_Rb_tree_nodeISC_EPKSM_SN_RT_@Base 0.85
 _ZNSt8_Rb_treeINSt7__cxx1112basic_stringIcSt11char_traitsIcESaIcEEESt4pairIKS5_N7htmlcxx3CSS6Parser9AttributeEESt10_Select1stISC_ESt4lessIS5_ESaISC_EE8_M_eraseEPSt13_Rb_tree_nodeISC_E@Base 0.85
 _ZNSt8_Rb_treeINSt7__cxx1112basic_stringIcSt11char_traitsIcESaIcEEESt4pairIKS5_S5_ESt10_Select1stIS8_ESt4lessIS5_ESaIS8_EE24_M_get_insert_unique_posERS7_@Base 0.85
 (arch-bits=64|arch=!s390x)_ZNSt8_Rb_treeINSt7__cxx1112basic_stringIcSt11char_traitsIcESaIcEEESt4pairIKS5_S5_ESt10_Select1stIS8_ESt4lessIS5_ESaIS8_EE29_M_get_insert_hint_unique_posESt23_Rb_tree_const_iteratorIS8_ERS7_@Base 0.85
 _ZNSt8_Rb_treeINSt7__cxx1112basic_stringIcSt11char_traitsIcESaIcEEESt4pairIKS5_S5_ESt10_Select1stIS8_ESt4lessIS5_ESaIS8_EE8_M_eraseEPSt13_Rb_tree_nodeIS8_E@Base 0.85
 _ZNSt8_Rb_treeISt6vectorIN7htmlcxx3CSS6Parser8SelectorESaIS4_EESt4pairIKS6_St3mapINSt7__cxx1112basic_stringIcSt11char_traitsIcESaIcEEENS3_9AttributeESt4lessISF_ESaIS7_IKSF_SG_EEEESt10_Select1stISN_ESH_IS6_ESaISN_EE24_M_get_insert_unique_posERS8_@Base 0.85
 (arch-bits=64|arch=!s390x)_ZNSt8_Rb_treeISt6vectorIN7htmlcxx3CSS6Parser8SelectorESaIS4_EESt4pairIKS6_St3mapINSt7__cxx1112basic_stringIcSt11char_traitsIcESaIcEEENS3_9AttributeESt4lessISF_ESaIS7_IKSF_SG_EEEESt10_Select1stISN_ESH_IS6_ESaISN_EE29_M_get_insert_hint_unique_posESt23_Rb_tree_const_iteratorISN_ERS8_@Base 0.85
 free_rulesets@Base 0.83
