libhtmlcxx.so.3 libhtmlcxx3v5 #MINVER#
 (optional)_ZN4treeIN7htmlcxx4HTML4NodeESaI10tree_node_IS2_EEE12append_childINS6_18pre_order_iteratorEEET_S9_RKS2_@Base 0.83
 (optional)_ZN4treeIN7htmlcxx4HTML4NodeESaI10tree_node_IS2_EEE18pre_order_iteratorppEv@Base 0.83
 (optional)_ZN4treeIN7htmlcxx4HTML4NodeESaI10tree_node_IS2_EEED1Ev@Base 0.83
 (optional)_ZN4treeIN7htmlcxx4HTML4NodeESaI10tree_node_IS2_EEED2Ev@Base 0.83
 _ZN7htmlcxx10Extensions5checkERKNSt7__cxx1112basic_stringIcSt11char_traitsIcESaIcEEE@Base 0.85
 _ZN7htmlcxx10ExtensionsC1ERKNSt7__cxx1112basic_stringIcSt11char_traitsIcESaIcEEE@Base 0.85
 _ZN7htmlcxx10ExtensionsC2ERKNSt7__cxx1112basic_stringIcSt11char_traitsIcESaIcEEE@Base 0.85
 _ZN7htmlcxx16CharsetConverter7convertERKNSt7__cxx1112basic_stringIcSt11char_traitsIcESaIcEEE@Base 0.85
 _ZN7htmlcxx16CharsetConverter9ExceptionD0Ev@Base 0.83
 _ZN7htmlcxx16CharsetConverter9ExceptionD1Ev@Base 0.83
 (optional)_ZN7htmlcxx16CharsetConverter9ExceptionD2Ev@Base 0.83
 _ZN7htmlcxx16CharsetConverterC1ERKNSt7__cxx1112basic_stringIcSt11char_traitsIcESaIcEEES8_@Base 0.85
 _ZN7htmlcxx16CharsetConverterC2ERKNSt7__cxx1112basic_stringIcSt11char_traitsIcESaIcEEES8_@Base 0.85
 _ZN7htmlcxx16CharsetConverterD1Ev@Base 0.83
 _ZN7htmlcxx16CharsetConverterD2Ev@Base 0.83
 _ZN7htmlcxx3Uri11existsQueryEb@Base 0.83
 _ZN7htmlcxx3Uri14existsFragmentEb@Base 0.83
 _ZN7htmlcxx3Uri4initERKNSt7__cxx1112basic_stringIcSt11char_traitsIcESaIcEEE@Base 0.85
 _ZN7htmlcxx3Uri4pathENSt7__cxx1112basic_stringIcSt11char_traitsIcESaIcEEE@Base 0.85
 _ZN7htmlcxx3Uri4portEj@Base 0.83
 _ZN7htmlcxx3Uri4userENSt7__cxx1112basic_stringIcSt11char_traitsIcESaIcEEE@Base 0.85
 _ZN7htmlcxx3Uri5queryENSt7__cxx1112basic_stringIcSt11char_traitsIcESaIcEEE@Base 0.85
 _ZN7htmlcxx3Uri6decodeERKNSt7__cxx1112basic_stringIcSt11char_traitsIcESaIcEEE@Base 0.85
 _ZN7htmlcxx3Uri6encodeERKNSt7__cxx1112basic_stringIcSt11char_traitsIcESaIcEEE@Base 0.85
 _ZN7htmlcxx3Uri6schemeENSt7__cxx1112basic_stringIcSt11char_traitsIcESaIcEEE@Base 0.85
 _ZN7htmlcxx3Uri8fragmentENSt7__cxx1112basic_stringIcSt11char_traitsIcESaIcEEE@Base 0.85
 _ZN7htmlcxx3Uri8hostnameENSt7__cxx1112basic_stringIcSt11char_traitsIcESaIcEEE@Base 0.85
 _ZN7htmlcxx3Uri8passwordENSt7__cxx1112basic_stringIcSt11char_traitsIcESaIcEEE@Base 0.85
 _ZN7htmlcxx3Uri9ExceptionD0Ev@Base 0.83
 _ZN7htmlcxx3Uri9ExceptionD1Ev@Base 0.83
 (optional)_ZN7htmlcxx3Uri9ExceptionD2Ev@Base 0.83
 _ZN7htmlcxx3UriC1ERKNSt7__cxx1112basic_stringIcSt11char_traitsIcESaIcEEE@Base 0.85
 _ZN7htmlcxx3UriC1Ev@Base 0.83
 _ZN7htmlcxx3UriC2ERKNSt7__cxx1112basic_stringIcSt11char_traitsIcESaIcEEE@Base 0.85
 _ZN7htmlcxx3UriC2Ev@Base 0.83
 _ZN7htmlcxx3UriD1Ev@Base 0.83
 _ZN7htmlcxx3UriD2Ev@Base 0.83
 _ZN7htmlcxx4HTML11detect_utf8EPKci@Base 0.83
 _ZN7htmlcxx4HTML12convert_linkERKNSt7__cxx1112basic_stringIcSt11char_traitsIcESaIcEEERKNS_3UriE@Base 0.85
 _ZN7htmlcxx4HTML12single_blankERKNSt7__cxx1112basic_stringIcSt11char_traitsIcESaIcEEE@Base 0.85
 _ZN7htmlcxx4HTML13get_attributeERKNSt7__cxx1112basic_stringIcSt11char_traitsIcESaIcEEES8_@Base 0.85
 _ZN7htmlcxx4HTML13serialize_gmlB5cxx11ERK4treeINS0_4NodeESaI10tree_node_IS2_EEE@Base 0.85
 _ZN7htmlcxx4HTML14strip_commentsERKNSt7__cxx1112basic_stringIcSt11char_traitsIcESaIcEEE@Base 0.85
 _ZN7htmlcxx4HTML15__serialize_gmlB5cxx11ERK4treeINS0_4NodeESaI10tree_node_IS2_EEENS6_18pre_order_iteratorES9_jRj@Base 0.85
 _ZN7htmlcxx4HTML15decode_entitiesERKNSt7__cxx1112basic_stringIcSt11char_traitsIcESaIcEEE@Base 0.85
 _ZN7htmlcxx4HTML16normalize_slashsERKNSt7__cxx1112basic_stringIcSt11char_traitsIcESaIcEEE@Base 0.85
 _ZN7htmlcxx4HTML4Node15parseAttributesEv@Base 0.83
 _ZN7htmlcxx4HTML4NodeD1Ev@Base 0.83
 (optional)_ZN7htmlcxx4HTML4NodeD2Ev@Base 0.83
 _ZN7htmlcxx4HTML9ParserDom10endParsingEv@Base 0.83
 _ZN7htmlcxx4HTML9ParserDom12beginParsingEv@Base 0.83
 _ZN7htmlcxx4HTML9ParserDom12foundCommentENS0_4NodeE@Base 0.83
 _ZN7htmlcxx4HTML9ParserDom8foundTagENS0_4NodeEb@Base 0.83
 _ZN7htmlcxx4HTML9ParserDom9foundTextENS0_4NodeE@Base 0.83
 _ZN7htmlcxx4HTML9ParserDom9parseTreeERKNSt7__cxx1112basic_stringIcSt11char_traitsIcESaIcEEE@Base 0.85
 _ZN7htmlcxx4HTML9ParserDomD0Ev@Base 0.83
 _ZN7htmlcxx4HTML9ParserDomD1Ev@Base 0.83
 (optional)_ZN7htmlcxx4HTML9ParserDomD2Ev@Base 0.83
 _ZN7htmlcxx4HTML9ParserSax10endParsingEv@Base 0.83
 (optional)_ZN7htmlcxx4HTML9ParserSax11skipHtmlTagIPKcEET_S5_S5_@Base 0.83
 _ZN7htmlcxx4HTML9ParserSax12beginParsingEv@Base 0.83
 _ZN7htmlcxx4HTML9ParserSax12foundCommentENS0_4NodeE@Base 0.83
 (optional)_ZN7htmlcxx4HTML9ParserSax12parseCommentIPKcEEvT_S5_@Base 0.83
 (optional)_ZN7htmlcxx4HTML9ParserSax12parseContentIPKcEEvT_S5_@Base 0.83
 (optional)_ZN7htmlcxx4HTML9ParserSax12parseHtmlTagIPKcEEvT_S5_@Base 0.83
 _ZN7htmlcxx4HTML9ParserSax5parseERKNSt7__cxx1112basic_stringIcSt11char_traitsIcESaIcEEE@Base 0.85
 (optional)_ZN7htmlcxx4HTML9ParserSax5parseIPKcEEvRT_S6_St20forward_iterator_tag@Base 0.83
 _ZN7htmlcxx4HTML9ParserSax8foundTagENS0_4NodeEb@Base 0.83
 _ZN7htmlcxx4HTML9ParserSax9foundTextENS0_4NodeE@Base 0.83
 _ZN7htmlcxx4HTML9ParserSaxD0Ev@Base 0.83
 _ZN7htmlcxx4HTML9ParserSaxD1Ev@Base 0.83
 (optional)_ZN7htmlcxx4HTML9ParserSaxD2Ev@Base 0.83
 _ZN7htmlcxx4HTMLlsERSoRK4treeINS0_4NodeESaI10tree_node_IS3_EEE@Base 0.83
 _ZNK7htmlcxx3Uri11existsQueryEv@Base 0.83
 _ZNK7htmlcxx3Uri14existsFragmentEv@Base 0.83
 _ZNK7htmlcxx3Uri17canonicalHostnameB5cxx11Ej@Base 0.85
 _ZNK7htmlcxx3Uri4pathB5cxx11Ev@Base 0.85
 _ZNK7htmlcxx3Uri4portEv@Base 0.83
 _ZNK7htmlcxx3Uri4userB5cxx11Ev@Base 0.85
 _ZNK7htmlcxx3Uri5queryB5cxx11Ev@Base 0.85
 _ZNK7htmlcxx3Uri6schemeB5cxx11Ev@Base 0.85
 _ZNK7htmlcxx3Uri7unparseB5cxx11Ei@Base 0.85
 _ZNK7htmlcxx3Uri8absoluteERKS0_@Base 0.83
 _ZNK7htmlcxx3Uri8fragmentB5cxx11Ev@Base 0.85
 _ZNK7htmlcxx3Uri8hostnameB5cxx11Ev@Base 0.85
 _ZNK7htmlcxx3Uri8passwordB5cxx11Ev@Base 0.85
 _ZNK7htmlcxx4HTML4NodecvNSt7__cxx1112basic_stringIcSt11char_traitsIcESaIcEEEB5cxx11Ev@Base 0.85
 _ZNK7htmlcxx4HTML4NodeeqERKS1_@Base 0.83
 _ZNK7htmlcxx4HTML4NodelsERSo@Base 0.83
 _ZNKSt5ctypeIcE8do_widenEc@Base 0.85
 _ZNSt4pairIKNSt7__cxx1112basic_stringIcSt11char_traitsIcESaIcEEES5_ED1Ev@Base 0.85
 _ZNSt4pairIKNSt7__cxx1112basic_stringIcSt11char_traitsIcESaIcEEES5_ED2Ev@Base 0.85
 _ZNSt4pairINSt7__cxx1112basic_stringIcSt11char_traitsIcESaIcEEES5_ED1Ev@Base 0.85
 _ZNSt4pairINSt7__cxx1112basic_stringIcSt11char_traitsIcESaIcEEES5_ED2Ev@Base 0.85
 (optional)_ZNSt6vectorIN4treeIN7htmlcxx4HTML4NodeESaI10tree_node_IS3_EEE18pre_order_iteratorESaIS8_EE13_M_insert_auxEN9__gnu_cxx17__normal_iteratorIPS8_SA_EERKS8_@Base 0.83
 _ZNSt8_Rb_treeINSt7__cxx1112basic_stringIc14ci_char_traitsSaIcEEES4_St9_IdentityIS4_ESt4lessIS4_ESaIS4_EE8_M_eraseEPSt13_Rb_tree_nodeIS4_E@Base 0.85
 _ZNSt8_Rb_treeINSt7__cxx1112basic_stringIcSt11char_traitsIcESaIcEEESt4pairIKS5_S5_ESt10_Select1stIS8_ESt4lessIS5_ESaIS8_EE16_M_insert_uniqueERKS8_@Base 0.85
 _ZNSt8_Rb_treeINSt7__cxx1112basic_stringIcSt11char_traitsIcESaIcEEESt4pairIKS5_S5_ESt10_Select1stIS8_ESt4lessIS5_ESaIS8_EE7_M_copyINSE_11_Alloc_nodeEEEPSt13_Rb_tree_nodeIS8_EPKSI_SJ_RT_@Base 0.85
 _ZNSt8_Rb_treeINSt7__cxx1112basic_stringIcSt11char_traitsIcESaIcEEESt4pairIKS5_S5_ESt10_Select1stIS8_ESt4lessIS5_ESaIS8_EE8_M_eraseEPSt13_Rb_tree_nodeIS8_E@Base 0.85
 _ZTIN7htmlcxx16CharsetConverter9ExceptionE@Base 0.83
 _ZTIN7htmlcxx3Uri9ExceptionE@Base 0.83
 _ZTIN7htmlcxx4HTML9ParserDomE@Base 0.83
 _ZTIN7htmlcxx4HTML9ParserSaxE@Base 0.83
 _ZTSN7htmlcxx16CharsetConverter9ExceptionE@Base 0.83
 _ZTSN7htmlcxx3Uri9ExceptionE@Base 0.83
 _ZTSN7htmlcxx4HTML9ParserDomE@Base 0.83
 _ZTSN7htmlcxx4HTML9ParserSaxE@Base 0.83
 _ZTVN7htmlcxx16CharsetConverter9ExceptionE@Base 0.83
 _ZTVN7htmlcxx3Uri9ExceptionE@Base 0.83
 _ZTVN7htmlcxx4HTML9ParserDomE@Base 0.83
